target datalayout = "e-m:e-p270:32:32-p271:32:32-p272:64:64-i64:64-i128:128-f80:128-n8:16:32:64-S128"
target triple = "x86_64-pc-linux-gnu"

%struct.pmix_mca_base_component_2_1_0_t = type { i32, i32, i32, [16 x i8], i32, i32, i32, [32 x i8], i32, i32, i32, [64 x i8], i32, i32, i32, ptr, ptr, ptr, ptr, [32 x i8] }
%struct.timespec = type { i64, i64 }
%struct.pmix_mca_base_framework_t = type { ptr, ptr, ptr, ptr, ptr, ptr, i32, i32, ptr, ptr, i32, i32, %struct.pmix_list_t, %struct.pmix_list_t }
%struct.pmix_list_t = type { %struct.pmix_object_t, %struct.pmix_list_item_t, i64 }
%struct.pmix_object_t = type { %union.pthread_mutex_t, ptr, i32, %struct.pmix_tma }
%union.pthread_mutex_t = type { %struct.__pthread_mutex_s }
%struct.__pthread_mutex_s = type { i32, i32, i32, i32, i32, i16, i16, %struct.__pthread_internal_list }
%struct.__pthread_internal_list = type { ptr, ptr }
%struct.pmix_tma = type { ptr, ptr, ptr, ptr, ptr, ptr, ptr, ptr }
%struct.pmix_list_item_t = type { %struct.pmix_object_t, ptr, ptr, i32 }
%struct.pmix_output_desc_t = type { i8, i8, i32, i8, i32, ptr, ptr, i32, ptr, i32, i8, i8, i8, i8, ptr, i32, i32 }
%struct.prte_process_info_t = type { %struct.pmix_proc, %struct.pmix_proc, ptr, %struct.pmix_proc, i32, i32, i32, ptr, ptr, i32, i8, ptr, i16, ptr, ptr, i8, ptr, i8 }
%struct.pmix_proc = type { [256 x i8], i32 }
%struct.prte_mca_plm_ssh_component_t = type { %struct.pmix_mca_base_component_2_1_0_t, i8, i8, i8, i8, i8, i8, i8, %struct.timespec, i32, i8, i32, ptr, ptr, ptr, i8, i8, ptr, ptr, ptr }

@prte_plm_base_framework = external global %struct.pmix_mca_base_framework_t, align 8
@pmix_output_info = external global [0 x %struct.pmix_output_desc_t], align 8
@prte_process_info = external global %struct.prte_process_info_t, align 8
@.str.49 = private unnamed_addr constant [5 x i8] c"NULL\00", align 1
@.str.52 = private unnamed_addr constant [64 x i8] c"%s plm:ssh_lookup on agent (null) path %s - No agent specified.\00", align 1
@.str.53 = private unnamed_addr constant [38 x i8] c"%s plm:ssh_lookup on agent %s path %s\00", align 1
@.str.54 = private unnamed_addr constant [4 x i8] c"ssh\00", align 1
@prte_xterm = external global ptr, align 8
@.str.55 = private unnamed_addr constant [3 x i8] c"-X\00", align 1
@.str.56 = private unnamed_addr constant [3 x i8] c"-x\00", align 1

; Function Attrs: nounwind uwtable
define internal i32 @ssh_launch_agent_lookup(ptr noundef %0, ptr noundef %1) #0 {
  %3 = alloca i32, align 4
  %4 = alloca ptr, align 8
  %5 = alloca ptr, align 8
  %6 = alloca ptr, align 8
  %7 = alloca i32, align 4
  %8 = alloca i32, align 4
  store ptr %0, ptr %4, align 8, !tbaa !18
  store ptr %1, ptr %5, align 8, !tbaa !18
  call void @llvm.lifetime.start.p0(i64 8, ptr %6) #6
  call void @llvm.lifetime.start.p0(i64 4, ptr %7) #6
  %9 = load ptr, ptr %4, align 8, !tbaa !18
  %10 = icmp eq ptr null, %9
  br i1 %10, label %11, label %38

11:                                               ; preds = %2
  %12 = load ptr, ptr getelementptr inbounds nuw (%struct.prte_mca_plm_ssh_component_t, ptr @prte_mca_plm_ssh_component, i32 0, i32 12), align 8, !tbaa !43
  %13 = icmp eq ptr null, %12
  br i1 %13, label %14, label %38

14:                                               ; preds = %11
  %15 = load i32, ptr getelementptr inbounds nuw (%struct.pmix_mca_base_framework_t, ptr @prte_plm_base_framework, i32 0, i32 11), align 4, !tbaa !30
  %16 = icmp sge i32 %15, 0
  br i1 %16, label %17, label %37

17:                                               ; preds = %14
  %18 = load i32, ptr getelementptr inbounds nuw (%struct.pmix_mca_base_framework_t, ptr @prte_plm_base_framework, i32 0, i32 11), align 4, !tbaa !30
  %19 = icmp slt i32 %18, 64
  br i1 %19, label %20, label %37

20:                                               ; preds = %17
  %21 = load i32, ptr getelementptr inbounds nuw (%struct.pmix_mca_base_framework_t, ptr @prte_plm_base_framework, i32 0, i32 11), align 4, !tbaa !30
  %22 = sext i32 %21 to i64
  %23 = getelementptr inbounds [0 x %struct.pmix_output_desc_t], ptr @pmix_output_info, i64 0, i64 %22
  %24 = getelementptr inbounds nuw %struct.pmix_output_desc_t, ptr %23, i32 0, i32 2
  %25 = load i32, ptr %24, align 4, !tbaa !39
  %26 = icmp sge i32 %25, 5
  br i1 %26, label %27, label %37

27:                                               ; preds = %20
  %28 = load i32, ptr getelementptr inbounds nuw (%struct.pmix_mca_base_framework_t, ptr @prte_plm_base_framework, i32 0, i32 11), align 4, !tbaa !30
  %29 = call ptr @prte_util_print_name_args(ptr noundef @prte_process_info)
  %30 = load ptr, ptr %5, align 8, !tbaa !18
  %31 = icmp eq ptr null, %30
  br i1 %31, label %32, label %33

32:                                               ; preds = %27
  br label %35

33:                                               ; preds = %27
  %34 = load ptr, ptr %5, align 8, !tbaa !18
  br label %35

35:                                               ; preds = %33, %32
  %36 = phi ptr [ @.str.49, %32 ], [ %34, %33 ]
  call void (i32, ptr, ...) @pmix_output(i32 noundef %28, ptr noundef @.str.52, ptr noundef %29, ptr noundef %36)
  br label %37

37:                                               ; preds = %35, %20, %17, %14
  store i32 -13, ptr %3, align 4
  store i32 1, ptr %8, align 4
  br label %140

38:                                               ; preds = %11, %2
  %39 = load i32, ptr getelementptr inbounds nuw (%struct.pmix_mca_base_framework_t, ptr @prte_plm_base_framework, i32 0, i32 11), align 4, !tbaa !30
  %40 = icmp sge i32 %39, 0
  br i1 %40, label %41, label %69

41:                                               ; preds = %38
  %42 = load i32, ptr getelementptr inbounds nuw (%struct.pmix_mca_base_framework_t, ptr @prte_plm_base_framework, i32 0, i32 11), align 4, !tbaa !30
  %43 = icmp slt i32 %42, 64
  br i1 %43, label %44, label %69

44:                                               ; preds = %41
  %45 = load i32, ptr getelementptr inbounds nuw (%struct.pmix_mca_base_framework_t, ptr @prte_plm_base_framework, i32 0, i32 11), align 4, !tbaa !30
  %46 = sext i32 %45 to i64
  %47 = getelementptr inbounds [0 x %struct.pmix_output_desc_t], ptr @pmix_output_info, i64 0, i64 %46
  %48 = getelementptr inbounds nuw %struct.pmix_output_desc_t, ptr %47, i32 0, i32 2
  %49 = load i32, ptr %48, align 4, !tbaa !39
  %50 = icmp sge i32 %49, 5
  br i1 %50, label %51, label %69

51:                                               ; preds = %44
  %52 = load i32, ptr getelementptr inbounds nuw (%struct.pmix_mca_base_framework_t, ptr @prte_plm_base_framework, i32 0, i32 11), align 4, !tbaa !30
  %53 = call ptr @prte_util_print_name_args(ptr noundef @prte_process_info)
  %54 = load ptr, ptr %4, align 8, !tbaa !18
  %55 = icmp eq ptr null, %54
  br i1 %55, label %56, label %58

56:                                               ; preds = %51
  %57 = load ptr, ptr getelementptr inbounds nuw (%struct.prte_mca_plm_ssh_component_t, ptr @prte_mca_plm_ssh_component, i32 0, i32 12), align 8, !tbaa !43
  br label %60

58:                                               ; preds = %51
  %59 = load ptr, ptr %4, align 8, !tbaa !18
  br label %60

60:                                               ; preds = %58, %56
  %61 = phi ptr [ %57, %56 ], [ %59, %58 ]
  %62 = load ptr, ptr %5, align 8, !tbaa !18
  %63 = icmp eq ptr null, %62
  br i1 %63, label %64, label %65

64:                                               ; preds = %60
  br label %67

65:                                               ; preds = %60
  %66 = load ptr, ptr %5, align 8, !tbaa !18
  br label %67

67:                                               ; preds = %65, %64
  %68 = phi ptr [ @.str.49, %64 ], [ %66, %65 ]
  call void (i32, ptr, ...) @pmix_output(i32 noundef %52, ptr noundef @.str.53, ptr noundef %53, ptr noundef %61, ptr noundef %68)
  br label %69

69:                                               ; preds = %67, %44, %41, %38
  %70 = load ptr, ptr %4, align 8, !tbaa !18
  %71 = load ptr, ptr %5, align 8, !tbaa !18
  %72 = call ptr @prte_plm_ssh_search(ptr noundef %70, ptr noundef %71)
  store ptr %72, ptr getelementptr inbounds nuw (%struct.prte_mca_plm_ssh_component_t, ptr @prte_mca_plm_ssh_component, i32 0, i32 14), align 8, !tbaa !16
  %73 = icmp eq ptr null, %72
  br i1 %73, label %74, label %75

74:                                               ; preds = %69
  store i32 -13, ptr %3, align 4
  store i32 1, ptr %8, align 4
  br label %140

75:                                               ; preds = %69
  %76 = load ptr, ptr getelementptr inbounds nuw (%struct.prte_mca_plm_ssh_component_t, ptr @prte_mca_plm_ssh_component, i32 0, i32 14), align 8, !tbaa !16
  %77 = getelementptr inbounds ptr, ptr %76, i64 0
  %78 = load ptr, ptr %77, align 8, !tbaa !18
  %79 = call noalias ptr @strdup(ptr noundef %78) #6
  store ptr %79, ptr getelementptr inbounds nuw (%struct.prte_mca_plm_ssh_component_t, ptr @prte_mca_plm_ssh_component, i32 0, i32 13), align 8, !tbaa !75
  %80 = load ptr, ptr getelementptr inbounds nuw (%struct.prte_mca_plm_ssh_component_t, ptr @prte_mca_plm_ssh_component, i32 0, i32 14), align 8, !tbaa !16
  %81 = getelementptr inbounds ptr, ptr %80, i64 0
  %82 = load ptr, ptr %81, align 8, !tbaa !18
  %83 = call noalias ptr @pmix_basename(ptr noundef %82)
  store ptr %83, ptr %6, align 8, !tbaa !18
  %84 = load ptr, ptr %6, align 8, !tbaa !18
  %85 = icmp eq ptr null, %84
  br i1 %85, label %86, label %87

86:                                               ; preds = %75
  store i32 0, ptr %3, align 4
  store i32 1, ptr %8, align 4
  br label %140

87:                                               ; preds = %75
  %88 = load ptr, ptr getelementptr inbounds nuw (%struct.prte_mca_plm_ssh_component_t, ptr @prte_mca_plm_ssh_component, i32 0, i32 14), align 8, !tbaa !16
  %89 = getelementptr inbounds ptr, ptr %88, i64 0
  %90 = load ptr, ptr %89, align 8, !tbaa !18
  call void @free(ptr noundef %90) #6
  %91 = load ptr, ptr %6, align 8, !tbaa !18
  %92 = load ptr, ptr getelementptr inbounds nuw (%struct.prte_mca_plm_ssh_component_t, ptr @prte_mca_plm_ssh_component, i32 0, i32 14), align 8, !tbaa !16
  %93 = getelementptr inbounds ptr, ptr %92, i64 0
  store ptr %91, ptr %93, align 8, !tbaa !18
  %94 = load ptr, ptr %6, align 8, !tbaa !18
  %95 = call i32 @strcmp(ptr noundef %94, ptr noundef @.str.54) #7
  %96 = icmp eq i32 0, %95
  br i1 %96, label %97, label %139

97:                                               ; preds = %87
  %98 = load ptr, ptr @prte_xterm, align 8, !tbaa !18
  %99 = icmp ne ptr null, %98
  br i1 %99, label %100, label %102

100:                                              ; preds = %97
  %101 = call i32 @PMIx_Argv_append_unique_nosize(ptr noundef getelementptr inbounds nuw (%struct.prte_mca_plm_ssh_component_t, ptr @prte_mca_plm_ssh_component, i32 0, i32 14), ptr noundef @.str.55)
  br label %138

102:                                              ; preds = %97
  %103 = load i32, ptr getelementptr inbounds nuw (%struct.pmix_mca_base_framework_t, ptr @prte_plm_base_framework, i32 0, i32 11), align 4, !tbaa !30
  %104 = call i32 @pmix_output_get_verbosity(i32 noundef %103)
  %105 = icmp sge i32 0, %104
  br i1 %105, label %106, label %137

106:                                              ; preds = %102
  store i32 1, ptr %7, align 4, !tbaa !26
  br label %107

107:                                              ; preds = %124, %106
  %108 = load ptr, ptr getelementptr inbounds nuw (%struct.prte_mca_plm_ssh_component_t, ptr @prte_mca_plm_ssh_component, i32 0, i32 14), align 8, !tbaa !16
  %109 = load i32, ptr %7, align 4, !tbaa !26
  %110 = sext i32 %109 to i64
  %111 = getelementptr inbounds ptr, ptr %108, i64 %110
  %112 = load ptr, ptr %111, align 8, !tbaa !18
  %113 = icmp ne ptr null, %112
  br i1 %113, label %114, label %127

114:                                              ; preds = %107
  %115 = load ptr, ptr getelementptr inbounds nuw (%struct.prte_mca_plm_ssh_component_t, ptr @prte_mca_plm_ssh_component, i32 0, i32 14), align 8, !tbaa !16
  %116 = load i32, ptr %7, align 4, !tbaa !26
  %117 = sext i32 %116 to i64
  %118 = getelementptr inbounds ptr, ptr %115, i64 %117
  %119 = load ptr, ptr %118, align 8, !tbaa !18
  %120 = call i32 @strcasecmp(ptr noundef @.str.56, ptr noundef %119) #7
  %121 = icmp eq i32 0, %120
  br i1 %121, label %122, label %123

122:                                              ; preds = %114
  br label %127

123:                                              ; preds = %114
  br label %124

124:                                              ; preds = %123
  %125 = load i32, ptr %7, align 4, !tbaa !26
  %126 = add nsw i32 %125, 1
  store i32 %126, ptr %7, align 4, !tbaa !26
  br label %107, !llvm.loop !76

127:                                              ; preds = %122, %107
  %128 = load ptr, ptr getelementptr inbounds nuw (%struct.prte_mca_plm_ssh_component_t, ptr @prte_mca_plm_ssh_component, i32 0, i32 14), align 8, !tbaa !16
  %129 = load i32, ptr %7, align 4, !tbaa !26
  %130 = sext i32 %129 to i64
  %131 = getelementptr inbounds ptr, ptr %128, i64 %130
  %132 = load ptr, ptr %131, align 8, !tbaa !18
  %133 = icmp eq ptr null, %132
  br i1 %133, label %134, label %136

134:                                              ; preds = %127
  %135 = call i32 @PMIx_Argv_append_nosize(ptr noundef getelementptr inbounds nuw (%struct.prte_mca_plm_ssh_component_t, ptr @prte_mca_plm_ssh_component, i32 0, i32 14), ptr noundef @.str.56)
  br label %136

136:                                              ; preds = %134, %127
  br label %137

137:                                              ; preds = %136, %102
  br label %138

138:                                              ; preds = %137, %100
  br label %139

139:                                              ; preds = %138, %87
  store i32 0, ptr %3, align 4
  store i32 1, ptr %8, align 4
  br label %140

140:                                              ; preds = %139, %86, %74, %37
  call void @llvm.lifetime.end.p0(i64 4, ptr %7) #6
  call void @llvm.lifetime.end.p0(i64 8, ptr %6) #6
  %141 = load i32, ptr %3, align 4
  ret i32 %141
}