; Function Attrs: nounwind uwtable
define internal fastcc range(i32 -13, 1) i32 @ssh_launch_agent_lookup(ptr noundef %0, ptr noundef %1) unnamed_addr #0 {
  %3 = icmp eq ptr %0, null
  %4 = load ptr, ptr getelementptr inbounds nuw (i8, ptr @prte_mca_plm_ssh_component, i64 264), align 8
  %5 = icmp eq ptr %4, null
  %or.cond = select i1 %3, i1 %5, i1 false
  %6 = load i32, ptr getelementptr inbounds nuw (i8, ptr @prte_plm_base_framework, i64 76), align 4, !tbaa !25
  %or.cond3 = icmp ult i32 %6, 64
  br i1 %or.cond, label %7, label %17

7:                                                ; preds = %2
  br i1 %or.cond3, label %8, label %.loopexit

8:                                                ; preds = %7
  %9 = zext nneg i32 %6 to i64
  %10 = getelementptr inbounds nuw [0 x %struct.pmix_output_desc_t], ptr @pmix_output_info, i64 0, i64 %9, i32 2
  %11 = load i32, ptr %10, align 4, !tbaa !34
  %12 = icmp sgt i32 %11, 4
  br i1 %12, label %13, label %.loopexit

13:                                               ; preds = %8
  %14 = tail call ptr @prte_util_print_name_args(ptr noundef nonnull @prte_process_info) #13
  %15 = icmp eq ptr %1, null
  %16 = select i1 %15, ptr @.str.49, ptr %1
  tail call void (i32, ptr, ...) @pmix_output(i32 noundef %6, ptr noundef nonnull @.str.52, ptr noundef %14, ptr noundef nonnull %16) #13
  br label %.loopexit

17:                                               ; preds = %2
  br i1 %or.cond3, label %18, label %29

18:                                               ; preds = %17
  %19 = zext nneg i32 %6 to i64
  %20 = getelementptr inbounds nuw [0 x %struct.pmix_output_desc_t], ptr @pmix_output_info, i64 0, i64 %19, i32 2
  %21 = load i32, ptr %20, align 4, !tbaa !34
  %22 = icmp sgt i32 %21, 4
  br i1 %22, label %23, label %29

23:                                               ; preds = %18
  %24 = tail call ptr @prte_util_print_name_args(ptr noundef nonnull @prte_process_info) #13
  %25 = load ptr, ptr getelementptr inbounds nuw (i8, ptr @prte_mca_plm_ssh_component, i64 264), align 8
  %26 = select i1 %3, ptr %25, ptr %0
  %27 = icmp eq ptr %1, null
  %28 = select i1 %27, ptr @.str.49, ptr %1
  tail call void (i32, ptr, ...) @pmix_output(i32 noundef %6, ptr noundef nonnull @.str.53, ptr noundef %24, ptr noundef %26, ptr noundef nonnull %28) #13
  br label %29

29:                                               ; preds = %23, %18, %17
  %30 = tail call ptr @prte_plm_ssh_search(ptr noundef %0, ptr noundef %1)
  store ptr %30, ptr getelementptr inbounds nuw (i8, ptr @prte_mca_plm_ssh_component, i64 280), align 8, !tbaa !16
  %31 = icmp eq ptr %30, null
  br i1 %31, label %.loopexit, label %32

32:                                               ; preds = %29
  %33 = load ptr, ptr %30, align 8, !tbaa !18
  %34 = tail call noalias ptr @strdup(ptr noundef %33) #13
  store ptr %34, ptr getelementptr inbounds nuw (i8, ptr @prte_mca_plm_ssh_component, i64 272), align 8, !tbaa !64
  %35 = load ptr, ptr %30, align 8, !tbaa !18
  %36 = tail call noalias ptr @pmix_basename(ptr noundef %35) #13
  %37 = icmp eq ptr %36, null
  br i1 %37, label %.loopexit, label %38

38:                                               ; preds = %32
  %39 = load ptr, ptr getelementptr inbounds nuw (i8, ptr @prte_mca_plm_ssh_component, i64 280), align 8, !tbaa !16
  %40 = load ptr, ptr %39, align 8, !tbaa !18
  tail call void @free(ptr noundef %40) #13
  %41 = load ptr, ptr getelementptr inbounds nuw (i8, ptr @prte_mca_plm_ssh_component, i64 280), align 8, !tbaa !16
  store ptr %36, ptr %41, align 8, !tbaa !18
  %42 = tail call i32 @strcmp(ptr noundef nonnull dereferenceable(1) %36, ptr noundef nonnull dereferenceable(4) @.str.54) #14
  %43 = icmp eq i32 %42, 0
  br i1 %43, label %44, label %.loopexit

44:                                               ; preds = %38
  %45 = load ptr, ptr @prte_xterm, align 8, !tbaa !18
  %.not = icmp eq ptr %45, null
  br i1 %.not, label %48, label %46

46:                                               ; preds = %44
  %47 = tail call i32 @PMIx_Argv_append_unique_nosize(ptr noundef nonnull getelementptr inbounds nuw (i8, ptr @prte_mca_plm_ssh_component, i64 280), ptr noundef nonnull @.str.55) #13
  br label %.loopexit

48:                                               ; preds = %44
  %49 = load i32, ptr getelementptr inbounds nuw (i8, ptr @prte_plm_base_framework, i64 76), align 4, !tbaa !25
  %50 = tail call i32 @pmix_output_get_verbosity(i32 noundef %49) #13
  %51 = icmp slt i32 %50, 1
  br i1 %51, label %.preheader, label %.loopexit

.preheader:                                       ; preds = %48
  %52 = load ptr, ptr getelementptr inbounds nuw (i8, ptr @prte_mca_plm_ssh_component, i64 280), align 8, !tbaa !16
  %53 = getelementptr inbounds nuw i8, ptr %52, i64 8
  %54 = load ptr, ptr %53, align 8, !tbaa !18
  %.not2728 = icmp eq ptr %54, null
  br i1 %.not2728, label %._crit_edge, label %.lr.ph

55:                                               ; preds = %.lr.ph
  %indvars.iv.next = add nuw nsw i64 %indvars.iv, 1
  %56 = getelementptr inbounds nuw ptr, ptr %52, i64 %indvars.iv.next
  %57 = load ptr, ptr %56, align 8, !tbaa !18
  %.not27 = icmp eq ptr %57, null
  br i1 %.not27, label %._crit_edge, label %.lr.ph, !llvm.loop !65

.lr.ph:                                           ; preds = %.preheader, %55
  %indvars.iv = phi i64 [ %indvars.iv.next, %55 ], [ 1, %.preheader ]
  %58 = phi ptr [ %57, %55 ], [ %54, %.preheader ]
  %59 = tail call i32 @strcasecmp(ptr noundef nonnull @.str.56, ptr noundef nonnull %58) #14
  %60 = icmp eq i32 %59, 0
  br i1 %60, label %.loopexit, label %55

._crit_edge:                                      ; preds = %55, %.preheader
  %61 = tail call i32 @PMIx_Argv_append_nosize(ptr noundef nonnull getelementptr inbounds nuw (i8, ptr @prte_mca_plm_ssh_component, i64 280), ptr noundef nonnull @.str.56) #13
  br label %.loopexit

.loopexit:                                        ; preds = %.lr.ph, %38, %48, %._crit_edge, %46, %32, %29, %7, %8, %13
  %.021 = phi i32 [ -13, %13 ], [ -13, %8 ], [ -13, %7 ], [ -13, %29 ], [ 0, %32 ], [ 0, %46 ], [ 0, %._crit_edge ], [ 0, %48 ], [ 0, %38 ], [ 0, %.lr.ph ]
  ret i32 %.021
}